target datalayout = "e-m:e-p270:32:32-p271:32:32-p272:64:64-i64:64-i128:128-f80:128-n8:16:32:64-S128"
target triple = "x86_64-pc-linux-gnu"

%struct.slurm_step_id_msg = type { i64, i32, i32, i32 }
%struct.step_location = type { ptr, ptr, i16, %struct.slurm_step_id_msg }
%struct.liststeps_info = type { i32, ptr }

@.str.22 = private unnamed_addr constant [11 x i8] c"info_job.c\00", align 1
@__func__._add_to_liststeps_list = private unnamed_addr constant [23 x i8] c"_add_to_liststeps_list\00", align 1

; Function Attrs: nounwind uwtable
define internal i32 @_add_to_liststeps_list(ptr noundef %0, ptr noundef %1) #0 {
  %3 = alloca ptr, align 8
  %4 = alloca ptr, align 8
  %5 = alloca ptr, align 8
  %6 = alloca ptr, align 8
  %7 = alloca ptr, align 8
  %8 = alloca [32 x i8], align 16
  %9 = alloca %struct.slurm_step_id_msg, align 8
  store ptr %0, ptr %3, align 8
  store ptr %1, ptr %4, align 8
  call void @llvm.lifetime.start.p0(i64 8, ptr %5) #9
  call void @llvm.lifetime.start.p0(i64 8, ptr %6) #9
  %10 = load ptr, ptr %3, align 8
  store ptr %10, ptr %6, align 8
  call void @llvm.lifetime.start.p0(i64 8, ptr %7) #9
  %11 = load ptr, ptr %4, align 8
  store ptr %11, ptr %7, align 8
  call void @llvm.lifetime.start.p0(i64 32, ptr %8) #9
  call void @llvm.lifetime.start.p0(i64 24, ptr %9) #9
  %12 = load ptr, ptr %6, align 8
  %13 = getelementptr inbounds nuw %struct.step_location, ptr %12, i32 0, i32 3
  call void @llvm.memcpy.p0.p0.i64(ptr align 8 %9, ptr align 8 %13, i64 24, i1 false)
  %14 = getelementptr inbounds [32 x i8], ptr %8, i64 0, i64 0
  %15 = call ptr @log_build_step_id_str(ptr noundef %9, ptr noundef %14, i32 noundef 32, i16 noundef zeroext 6)
  %16 = call ptr @slurm_xcalloc(i64 noundef 1, i64 noundef 16, i1 noundef zeroext true, i1 noundef zeroext false, ptr noundef @.str.22, i32 noundef 1919, ptr noundef @__func__._add_to_liststeps_list)
  store ptr %16, ptr %5, align 8
  %17 = getelementptr inbounds [32 x i8], ptr %8, i64 0, i64 0
  %18 = call ptr @xstrdup(ptr noundef %17)
  %19 = load ptr, ptr %5, align 8
  %20 = getelementptr inbounds nuw %struct.liststeps_info, ptr %19, i32 0, i32 1
  store ptr %18, ptr %20, align 8
  %21 = getelementptr inbounds nuw %struct.slurm_step_id_msg, ptr %9, i32 0, i32 1
  %22 = load i32, ptr %21, align 8
  %23 = load ptr, ptr %5, align 8
  %24 = getelementptr inbounds nuw %struct.liststeps_info, ptr %23, i32 0, i32 0
  store i32 %22, ptr %24, align 8
  %25 = load ptr, ptr %7, align 8
  %26 = load ptr, ptr %5, align 8
  call void @list_append(ptr noundef %25, ptr noundef %26)
  call void @llvm.lifetime.end.p0(i64 24, ptr %9) #9
  call void @llvm.lifetime.end.p0(i64 32, ptr %8) #9
  call void @llvm.lifetime.end.p0(i64 8, ptr %7) #9
  call void @llvm.lifetime.end.p0(i64 8, ptr %6) #9
  call void @llvm.lifetime.end.p0(i64 8, ptr %5) #9
  ret i32 0
}