; Function Attrs: nounwind uwtable
define internal noundef i32 @_add_to_liststeps_list(ptr noundef readonly captures(none) %0, ptr noundef %1) #0 {
  %3 = alloca [32 x i8], align 16
  %4 = alloca %struct.slurm_step_id_msg, align 8
  call void @llvm.lifetime.start.p0(i64 32, ptr nonnull %3) #16
  call void @llvm.lifetime.start.p0(i64 24, ptr nonnull %4) #16
  %5 = getelementptr inbounds nuw i8, ptr %0, i64 24
  call void @llvm.memcpy.p0.p0.i64(ptr noundef nonnull align 8 dereferenceable(24) %4, ptr noundef nonnull align 8 dereferenceable(24) %5, i64 24, i1 false)
  %6 = call ptr @log_build_step_id_str(ptr noundef nonnull %4, ptr noundef nonnull %3, i32 noundef 32, i16 noundef zeroext 6) #16
  %7 = call ptr @slurm_xcalloc(i64 noundef 1, i64 noundef 16, i1 noundef zeroext true, i1 noundef zeroext false, ptr noundef nonnull @.str.22, i32 noundef 1919, ptr noundef nonnull @__func__._add_to_liststeps_list) #16
  %8 = call ptr @xstrdup(ptr noundef nonnull %3) #16
  %9 = getelementptr inbounds nuw i8, ptr %7, i64 8
  store ptr %8, ptr %9, align 8
  %10 = getelementptr inbounds nuw i8, ptr %4, i64 8
  %11 = load i32, ptr %10, align 8
  store i32 %11, ptr %7, align 8
  call void @list_append(ptr noundef %1, ptr noundef nonnull %7) #16
  call void @llvm.lifetime.end.p0(i64 24, ptr nonnull %4) #16
  call void @llvm.lifetime.end.p0(i64 32, ptr nonnull %3) #16
  ret i32 0
}